; Function Attrs: nounwind uwtable
define internal ptr @cell_repr(ptr noundef %0) #0 {
  %2 = getelementptr i8, ptr %0, i64 16
  %.val = load ptr, ptr %2, align 8, !tbaa !7
  %.not.i.i.i = icmp eq ptr %.val, null
  br i1 %.not.i.i.i, label %PyCell_GetRef.exit, label %3

3:                                                ; preds = %1
  %4 = load i32, ptr %.val, align 8, !tbaa !4
  %5 = icmp slt i32 %4, 0
  br i1 %5, label %9, label %6

6:                                                ; preds = %3
  %7 = add nuw i32 %4, 1
  store i32 %7, ptr %.val, align 8, !tbaa !4
  br label %9

PyCell_GetRef.exit:                               ; preds = %1
  %8 = tail call ptr (ptr, ...) @PyUnicode_FromFormat(ptr noundef nonnull @.str.3, ptr noundef nonnull %0) #4
  br label %Py_DECREF.exit

9:                                                ; preds = %3, %6
  %10 = getelementptr i8, ptr %.val, i64 8
  %.val10 = load ptr, ptr %10, align 8, !tbaa !98
  %11 = getelementptr inbounds nuw i8, ptr %.val10, i64 24
  %12 = load ptr, ptr %11, align 8, !tbaa !99
  %13 = tail call ptr (ptr, ...) @PyUnicode_FromFormat(ptr noundef nonnull @.str.4, ptr noundef nonnull %0, ptr noundef %12, ptr noundef nonnull %.val) #4
  %14 = load i32, ptr %.val, align 8, !tbaa !4
  %.not.i = icmp sgt i32 %14, -1
  br i1 %.not.i, label %15, label %Py_DECREF.exit

15:                                               ; preds = %9
  %16 = add nsw i32 %14, -1
  store i32 %16, ptr %.val, align 8, !tbaa !4
  %17 = icmp eq i32 %16, 0
  br i1 %17, label %18, label %Py_DECREF.exit

18:                                               ; preds = %15
  tail call void @_Py_Dealloc(ptr noundef nonnull %.val) #4
  br label %Py_DECREF.exit

Py_DECREF.exit:                                   ; preds = %18, %15, %9, %PyCell_GetRef.exit
  %.0 = phi ptr [ %8, %PyCell_GetRef.exit ], [ %13, %9 ], [ %13, %15 ], [ %13, %18 ]
  ret ptr %.0
}